; ModuleID = '11/654.c'
source_filename = "11/654.c"
target datalayout = "e-m:e-p270:32:32-p271:32:32-p272:64:64-i64:64-f80:128-n8:16:32:64-S128"
target triple = "x86_64-pc-linux-gnu"

@.str = private unnamed_addr constant [7 x i8] c"%d%d%d\00", align 1
@__const.main.a = private unnamed_addr constant [2 x [12 x i32]] [[12 x i32] [i32 31, i32 28, i32 31, i32 30, i32 31, i32 30, i32 31, i32 31, i32 30, i32 31, i32 30, i32 31], [12 x i32] [i32 31, i32 29, i32 31, i32 30, i32 31, i32 30, i32 31, i32 31, i32 30, i32 31, i32 30, i32 31]], align 16
@.str.1 = private unnamed_addr constant [3 x i8] c"%d\00", align 1

; Function Attrs: noinline nounwind uwtable
define dso_local i32 @main() #0 {
  %1 = alloca i32, align 4
  %2 = alloca i32, align 4
  %3 = alloca i32, align 4
  %4 = alloca i32, align 4
  %5 = alloca i32, align 4
  %6 = alloca i32, align 4
  %7 = alloca [2 x [12 x i32]], align 16
  store i32 0, i32* %1, align 4
  store i32 0, i32* %6, align 4
  %8 = call i32 (i8*, ...) @__isoc99_scanf(i8* getelementptr inbounds ([7 x i8], [7 x i8]* @.str, i64 0, i64 0), i32* %2, i32* %3, i32* %4)
  %9 = bitcast [2 x [12 x i32]]* %7 to i8*
  call void @llvm.memcpy.p0i8.p0i8.i64(i8* align 16 %9, i8* align 16 bitcast ([2 x [12 x i32]]* @__const.main.a to i8*), i64 96, i1 false)
  %10 = load i32, i32* %2, align 4
  %11 = srem i32 %10, 4
  %12 = icmp eq i32 %11, 0
  br i1 %12, label %13, label %17

13:                                               ; preds = %0
  %14 = load i32, i32* %2, align 4
  %15 = srem i32 %14, 100
  %16 = icmp ne i32 %15, 0
  br i1 %16, label %21, label %17

17:                                               ; preds = %13, %0
  %18 = load i32, i32* %2, align 4
  %19 = srem i32 %18, 400
  %20 = icmp eq i32 %19, 0
  br i1 %20, label %21, label %48

21:                                               ; preds = %17, %13
  store i32 0, i32* %5, align 4
  br label %22

22:                                               ; preds = %34, %21
  %23 = load i32, i32* %5, align 4
  %24 = load i32, i32* %3, align 4
  %25 = icmp slt i32 %23, %24
  br i1 %25, label %26, label %37

26:                                               ; preds = %22
  %27 = getelementptr inbounds [2 x [12 x i32]], [2 x [12 x i32]]* %7, i64 0, i64 1
  %28 = load i32, i32* %5, align 4
  %29 = sext i32 %28 to i64
  %30 = getelementptr inbounds [12 x i32], [12 x i32]* %27, i64 0, i64 %29
  %31 = load i32, i32* %30, align 4
  %32 = load i32, i32* %6, align 4
  %33 = add nsw i32 %32, %31
  store i32 %33, i32* %6, align 4
  br label %34

34:                                               ; preds = %26
  %35 = load i32, i32* %5, align 4
  %36 = add nsw i32 %35, 1
  store i32 %36, i32* %5, align 4
  br label %22

37:                                               ; preds = %22
  %38 = load i32, i32* %6, align 4
  %39 = load i32, i32* %4, align 4
  %40 = add nsw i32 %38, %39
  %41 = getelementptr inbounds [2 x [12 x i32]], [2 x [12 x i32]]* %7, i64 0, i64 1
  %42 = load i32, i32* %3, align 4
  %43 = sub nsw i32 %42, 1
  %44 = sext i32 %43 to i64
  %45 = getelementptr inbounds [12 x i32], [12 x i32]* %41, i64 0, i64 %44
  %46 = load i32, i32* %45, align 4
  %47 = sub nsw i32 %40, %46
  store i32 %47, i32* %6, align 4
  br label %75

48:                                               ; preds = %17
  store i32 0, i32* %5, align 4
  br label %49

49:                                               ; preds = %61, %48
  %50 = load i32, i32* %5, align 4
  %51 = load i32, i32* %3, align 4
  %52 = icmp slt i32 %50, %51
  br i1 %52, label %53, label %64

53:                                               ; preds = %49
  %54 = getelementptr inbounds [2 x [12 x i32]], [2 x [12 x i32]]* %7, i64 0, i64 0
  %55 = load i32, i32* %5, align 4
  %56 = sext i32 %55 to i64
  %57 = getelementptr inbounds [12 x i32], [12 x i32]* %54, i64 0, i64 %56
  %58 = load i32, i32* %57, align 4
  %59 = load i32, i32* %6, align 4
  %60 = add nsw i32 %59, %58
  store i32 %60, i32* %6, align 4
  br label %61

61:                                               ; preds = %53
  %62 = load i32, i32* %5, align 4
  %63 = add nsw i32 %62, 1
  store i32 %63, i32* %5, align 4
  br label %49

64:                                               ; preds = %49
  %65 = load i32, i32* %6, align 4
  %66 = load i32, i32* %4, align 4
  %67 = add nsw i32 %65, %66
  %68 = getelementptr inbounds [2 x [12 x i32]], [2 x [12 x i32]]* %7, i64 0, i64 0
  %69 = load i32, i32* %3, align 4
  %70 = sub nsw i32 %69, 1
  %71 = sext i32 %70 to i64
  %72 = getelementptr inbounds [12 x i32], [12 x i32]* %68, i64 0, i64 %71
  %73 = load i32, i32* %72, align 4
  %74 = sub nsw i32 %67, %73
  store i32 %74, i32* %6, align 4
  br label %75

75:                                               ; preds = %64, %37
  %76 = load i32, i32* %6, align 4
  %77 = call i32 (i8*, ...) @printf(i8* getelementptr inbounds ([3 x i8], [3 x i8]* @.str.1, i64 0, i64 0), i32 %76)
  ret i32 0
}

declare dso_local i32 @__isoc99_scanf(i8*, ...) #1

; Function Attrs: argmemonly nounwind willreturn
declare void @llvm.memcpy.p0i8.p0i8.i64(i8* noalias nocapture writeonly, i8* noalias nocapture readonly, i64, i1 immarg) #2

declare dso_local i32 @printf(i8*, ...) #1


!llvm.module.flags = !{!0}
!llvm.ident = !{!1}

!0 = !{i32 1, !"wchar_size", i32 4}
!1 = !{!"clang version 10.0.0-4ubuntu1 "}
